target datalayout = "e-m:e-p270:32:32-p271:32:32-p272:64:64-i64:64-i128:128-f80:128-n8:16:32:64-S128"
target triple = "x86_64-pc-linux-gnu"

@.str.17 = private unnamed_addr constant [5 x i8] c"html\00", align 1

; Function Attrs: nounwind uwtable
define internal i32 @getTextPart(ptr noundef %0, i64 noundef %1) #0 {
  %3 = alloca i32, align 4
  %4 = alloca ptr, align 8
  %5 = alloca i64, align 8
  %6 = alloca i64, align 8
  %7 = alloca i32, align 4
  store ptr %0, ptr %4, align 8
  store i64 %1, ptr %5, align 8
  store i32 -1, ptr %7, align 4
  store i64 0, ptr %6, align 8
  br label %8

8:                                                ; preds = %40, %2
  %9 = load i64, ptr %6, align 8
  %10 = load i64, ptr %5, align 8
  %11 = icmp ult i64 %9, %10
  br i1 %11, label %12, label %43

12:                                               ; preds = %8
  %13 = load ptr, ptr %4, align 8
  %14 = load i64, ptr %6, align 8
  %15 = getelementptr inbounds ptr, ptr %13, i64 %14
  %16 = load ptr, ptr %15, align 8
  %17 = icmp ne ptr %16, null
  br i1 %17, label %18, label %39

18:                                               ; preds = %12
  %19 = load ptr, ptr %4, align 8
  %20 = load i64, ptr %6, align 8
  %21 = getelementptr inbounds ptr, ptr %19, i64 %20
  %22 = load ptr, ptr %21, align 8
  %23 = call i32 @messageGetMimeType(ptr noundef %22)
  %24 = icmp eq i32 %23, 6
  br i1 %24, label %25, label %39

25:                                               ; preds = %18
  %26 = load ptr, ptr %4, align 8
  %27 = load i64, ptr %6, align 8
  %28 = getelementptr inbounds ptr, ptr %26, i64 %27
  %29 = load ptr, ptr %28, align 8
  %30 = call ptr @messageGetMimeSubtype(ptr noundef %29)
  %31 = call i32 @strcasecmp(ptr noundef %30, ptr noundef @.str.17) #9
  %32 = icmp eq i32 %31, 0
  br i1 %32, label %33, label %36

33:                                               ; preds = %25
  %34 = load i64, ptr %6, align 8
  %35 = trunc i64 %34 to i32
  store i32 %35, ptr %3, align 4
  br label %45

36:                                               ; preds = %25
  %37 = load i64, ptr %6, align 8
  %38 = trunc i64 %37 to i32
  store i32 %38, ptr %7, align 4
  br label %39

39:                                               ; preds = %36, %18, %12
  br label %40

40:                                               ; preds = %39
  %41 = load i64, ptr %6, align 8
  %42 = add i64 %41, 1
  store i64 %42, ptr %6, align 8
  br label %8

43:                                               ; preds = %8
  %44 = load i32, ptr %7, align 4
  store i32 %44, ptr %3, align 4
  br label %45

45:                                               ; preds = %43, %33
  %46 = load i32, ptr %3, align 4
  ret i32 %46
}