; Function Attrs: nounwind uwtable
define internal fastcc i32 @getTextPart(ptr nocapture noundef readonly %0, i64 noundef %1) unnamed_addr #0 {
  %.not19 = icmp eq i64 %1, 0
  br i1 %.not19, label %.loopexit, label %.lr.ph

.lr.ph:                                           ; preds = %2, %14
  %.018 = phi i32 [ %.1, %14 ], [ -1, %2 ]
  %.01217 = phi i64 [ %15, %14 ], [ 0, %2 ]
  %3 = getelementptr inbounds ptr, ptr %0, i64 %.01217
  %4 = load ptr, ptr %3, align 8
  %.not = icmp eq ptr %4, null
  br i1 %.not, label %14, label %5

5:                                                ; preds = %.lr.ph
  %6 = tail call i32 @messageGetMimeType(ptr noundef nonnull %4) #19
  %7 = icmp eq i32 %6, 6
  br i1 %7, label %8, label %14

8:                                                ; preds = %5
  %9 = load ptr, ptr %3, align 8
  %10 = tail call ptr @messageGetMimeSubtype(ptr noundef %9) #19
  %11 = tail call i32 @strcasecmp(ptr noundef %10, ptr noundef nonnull @.str.17) #21
  %12 = icmp eq i32 %11, 0
  %13 = trunc i64 %.01217 to i32
  br i1 %12, label %.loopexit, label %14

14:                                               ; preds = %8, %.lr.ph, %5
  %.1 = phi i32 [ %.018, %5 ], [ %.018, %.lr.ph ], [ %13, %8 ]
  %15 = add nuw i64 %.01217, 1
  %exitcond.not = icmp eq i64 %15, %1
  br i1 %exitcond.not, label %.loopexit, label %.lr.ph

.loopexit:                                        ; preds = %14, %8, %2
  %.013 = phi i32 [ -1, %2 ], [ %.1, %14 ], [ %13, %8 ]
  ret i32 %.013
}